target datalayout = "e-m:e-p270:32:32-p271:32:32-p272:64:64-i64:64-i128:128-f80:128-n8:16:32:64-S128"
target triple = "x86_64-pc-linux-gnu"

%struct.If_Grp_t_ = type { i8, i8, [16 x i8] }

@.str.5 = private unnamed_addr constant [13 x i8] c"Vars = %d   \00", align 1
@.str.6 = private unnamed_addr constant [13 x i8] c"Myu = %d   {\00", align 1
@.str.7 = private unnamed_addr constant [4 x i8] c" %c\00", align 1
@.str.8 = private unnamed_addr constant [4 x i8] c" }\0A\00", align 1

; Function Attrs: nounwind uwtable
define void @If_CluPrintGroup(ptr noundef %0) #0 {
  %2 = alloca ptr, align 8
  %3 = alloca i32, align 4
  store ptr %0, ptr %2, align 8, !tbaa !106
  call void @llvm.lifetime.start.p0(i64 4, ptr %3) #11
  %4 = load ptr, ptr %2, align 8, !tbaa !106
  %5 = getelementptr inbounds nuw %struct.If_Grp_t_, ptr %4, i32 0, i32 0
  %6 = load i8, ptr %5, align 1, !tbaa !49
  %7 = sext i8 %6 to i32
  %8 = call i32 (ptr, ...) @printf(ptr noundef @.str.5, i32 noundef %7)
  %9 = load ptr, ptr %2, align 8, !tbaa !106
  %10 = getelementptr inbounds nuw %struct.If_Grp_t_, ptr %9, i32 0, i32 1
  %11 = load i8, ptr %10, align 1, !tbaa !108
  %12 = sext i8 %11 to i32
  %13 = call i32 (ptr, ...) @printf(ptr noundef @.str.6, i32 noundef %12)
  store i32 0, ptr %3, align 4, !tbaa !3
  br label %14

14:                                               ; preds = %31, %1
  %15 = load i32, ptr %3, align 4, !tbaa !3
  %16 = load ptr, ptr %2, align 8, !tbaa !106
  %17 = getelementptr inbounds nuw %struct.If_Grp_t_, ptr %16, i32 0, i32 0
  %18 = load i8, ptr %17, align 1, !tbaa !49
  %19 = sext i8 %18 to i32
  %20 = icmp slt i32 %15, %19
  br i1 %20, label %21, label %34

21:                                               ; preds = %14
  %22 = load ptr, ptr %2, align 8, !tbaa !106
  %23 = getelementptr inbounds nuw %struct.If_Grp_t_, ptr %22, i32 0, i32 2
  %24 = load i32, ptr %3, align 4, !tbaa !3
  %25 = sext i32 %24 to i64
  %26 = getelementptr inbounds [16 x i8], ptr %23, i64 0, i64 %25
  %27 = load i8, ptr %26, align 1, !tbaa !46
  %28 = sext i8 %27 to i32
  %29 = add nsw i32 97, %28
  %30 = call i32 (ptr, ...) @printf(ptr noundef @.str.7, i32 noundef %29)
  br label %31

31:                                               ; preds = %21
  %32 = load i32, ptr %3, align 4, !tbaa !3
  %33 = add nsw i32 %32, 1
  store i32 %33, ptr %3, align 4, !tbaa !3
  br label %14, !llvm.loop !109

34:                                               ; preds = %14
  %35 = call i32 (ptr, ...) @printf(ptr noundef @.str.8)
  call void @llvm.lifetime.end.p0(i64 4, ptr %3) #11
  ret void
}