; Function Attrs: nofree nounwind uwtable
define void @If_CluPrintGroup(ptr noundef readonly captures(none) %0) local_unnamed_addr #6 {
  %2 = load i8, ptr %0, align 1, !tbaa !110
  %3 = sext i8 %2 to i32
  %4 = tail call i32 (ptr, ...) @printf(ptr noundef nonnull dereferenceable(1) @.str.5, i32 noundef %3)
  %5 = getelementptr inbounds nuw i8, ptr %0, i64 1
  %6 = load i8, ptr %5, align 1, !tbaa !112
  %7 = sext i8 %6 to i32
  %8 = tail call i32 (ptr, ...) @printf(ptr noundef nonnull dereferenceable(1) @.str.6, i32 noundef %7)
  %9 = load i8, ptr %0, align 1, !tbaa !110
  %10 = icmp sgt i8 %9, 0
  br i1 %10, label %.lr.ph, label %._crit_edge

.lr.ph:                                           ; preds = %1
  %11 = getelementptr inbounds nuw i8, ptr %0, i64 2
  br label %12

12:                                               ; preds = %.lr.ph, %12
  %indvars.iv = phi i64 [ 0, %.lr.ph ], [ %indvars.iv.next, %12 ]
  %13 = getelementptr inbounds nuw [16 x i8], ptr %11, i64 0, i64 %indvars.iv
  %14 = load i8, ptr %13, align 1, !tbaa !59
  %15 = sext i8 %14 to i32
  %16 = add nsw i32 %15, 97
  %17 = tail call i32 (ptr, ...) @printf(ptr noundef nonnull dereferenceable(1) @.str.7, i32 noundef %16)
  %indvars.iv.next = add nuw nsw i64 %indvars.iv, 1
  %18 = load i8, ptr %0, align 1, !tbaa !110
  %19 = sext i8 %18 to i64
  %20 = icmp slt i64 %indvars.iv.next, %19
  br i1 %20, label %12, label %._crit_edge, !llvm.loop !113

._crit_edge:                                      ; preds = %12, %1
  %puts = tail call i32 @puts(ptr nonnull dereferenceable(1) @str.2)
  ret void
}